target datalayout = "e-m:e-p270:32:32-p271:32:32-p272:64:64-i64:64-i128:128-f80:128-n8:16:32:64-S128"
target triple = "x86_64-pc-linux-gnu"

%struct._zval_struct = type { %union._zend_value, %union.anon, %union.anon.3 }
%union._zend_value = type { i64 }
%union.anon = type { i32 }
%union.anon.3 = type { i32 }
%struct._zend_array = type { %struct._zend_refcounted_h, %union.anon.5, i32, %union.anon.7, i32, i32, i32, i32, i64, ptr }
%struct._zend_refcounted_h = type { i32, %union.anon.4 }
%union.anon.4 = type { i32 }
%union.anon.5 = type { i32 }
%union.anon.7 = type { ptr }
%struct.anon.1 = type { i8, i8, %union.anon.2 }
%union.anon.2 = type { i16 }
%struct._Bucket = type { %struct._zval_struct, i64, ptr }

; Function Attrs: nounwind uwtable
define internal void @join_hash_tables(ptr noundef %0, ptr noundef %1, ptr noundef %2) #0 {
  %4 = alloca ptr, align 8
  %5 = alloca ptr, align 8
  %6 = alloca ptr, align 8
  %7 = alloca ptr, align 8
  %8 = alloca ptr, align 8
  %9 = alloca ptr, align 8
  %10 = alloca i64, align 8
  %11 = alloca ptr, align 8
  %12 = alloca ptr, align 8
  %13 = alloca ptr, align 8
  %14 = alloca ptr, align 8
  %15 = alloca i64, align 8
  %16 = alloca ptr, align 8
  %17 = alloca i32, align 4
  %18 = alloca i64, align 8
  %19 = alloca ptr, align 8
  %20 = alloca i32, align 4
  %21 = alloca ptr, align 8
  %22 = alloca ptr, align 8
  store ptr %0, ptr %7, align 8
  store ptr %1, ptr %8, align 8
  store ptr %2, ptr %9, align 8
  br label %23

23:                                               ; preds = %3
  %24 = load ptr, ptr %8, align 8
  store ptr %24, ptr %14, align 8
  store ptr null, ptr %16, align 8
  store i32 0, ptr %17, align 4
  %25 = load ptr, ptr %14, align 8
  %26 = getelementptr inbounds %struct._zend_array, ptr %25, i32 0, i32 1
  %27 = load i32, ptr %26, align 8
  %28 = xor i32 %27, -1
  %29 = and i32 %28, 4
  %30 = zext i32 %29 to i64
  %31 = mul i64 %30, 4
  %32 = add i64 16, %31
  store i64 %32, ptr %18, align 8
  %33 = load ptr, ptr %14, align 8
  %34 = getelementptr inbounds %struct._zend_array, ptr %33, i32 0, i32 3
  %35 = load ptr, ptr %34, align 8
  %36 = load i32, ptr %17, align 4
  %37 = zext i32 %36 to i64
  %38 = load i64, ptr %18, align 8
  %39 = mul i64 %37, %38
  %40 = getelementptr inbounds i8, ptr %35, i64 %39
  store ptr %40, ptr %19, align 8
  %41 = load ptr, ptr %14, align 8
  %42 = getelementptr inbounds %struct._zend_array, ptr %41, i32 0, i32 4
  %43 = load i32, ptr %42, align 8
  %44 = load i32, ptr %17, align 4
  %45 = sub i32 %43, %44
  store i32 %45, ptr %20, align 4
  br label %46

46:                                               ; preds = %145, %23
  %47 = load i32, ptr %20, align 4
  %48 = icmp ugt i32 %47, 0
  br i1 %48, label %49, label %148

49:                                               ; preds = %46
  %50 = load ptr, ptr %19, align 8
  store ptr %50, ptr %21, align 8
  %51 = load ptr, ptr %14, align 8
  %52 = getelementptr inbounds %struct._zend_array, ptr %51, i32 0, i32 1
  %53 = load i32, ptr %52, align 8
  %54 = and i32 %53, 4
  %55 = icmp ne i32 %54, 0
  br i1 %55, label %56, label %63

56:                                               ; preds = %49
  %57 = load ptr, ptr %19, align 8
  %58 = getelementptr inbounds %struct._zval_struct, ptr %57, i32 1
  store ptr %58, ptr %19, align 8
  %59 = load i32, ptr %17, align 4
  %60 = zext i32 %59 to i64
  store i64 %60, ptr %15, align 8
  %61 = load i32, ptr %17, align 4
  %62 = add i32 %61, 1
  store i32 %62, ptr %17, align 4
  br label %74

63:                                               ; preds = %49
  %64 = load ptr, ptr %19, align 8
  store ptr %64, ptr %22, align 8
  %65 = load ptr, ptr %22, align 8
  %66 = getelementptr inbounds %struct._Bucket, ptr %65, i64 1
  %67 = getelementptr inbounds %struct._Bucket, ptr %66, i32 0, i32 0
  store ptr %67, ptr %19, align 8
  %68 = load ptr, ptr %22, align 8
  %69 = getelementptr inbounds %struct._Bucket, ptr %68, i32 0, i32 1
  %70 = load i64, ptr %69, align 8
  store i64 %70, ptr %15, align 8
  %71 = load ptr, ptr %22, align 8
  %72 = getelementptr inbounds %struct._Bucket, ptr %71, i32 0, i32 2
  %73 = load ptr, ptr %72, align 8
  store ptr %73, ptr %16, align 8
  br label %74

74:                                               ; preds = %63, %56
  %75 = load ptr, ptr %21, align 8
  store ptr %75, ptr %6, align 8
  %76 = load ptr, ptr %6, align 8
  %77 = getelementptr inbounds %struct._zval_struct, ptr %76, i32 0, i32 1
  %78 = load i8, ptr %77, align 8
  %79 = zext i8 %78 to i32
  %80 = icmp eq i32 %79, 0
  %81 = xor i1 %80, true
  %82 = xor i1 %81, true
  %83 = zext i1 %82 to i32
  %84 = sext i32 %83 to i64
  %85 = icmp ne i64 %84, 0
  br i1 %85, label %86, label %87

86:                                               ; preds = %74
  br label %145

87:                                               ; preds = %74
  %88 = load i64, ptr %15, align 8
  store i64 %88, ptr %10, align 8
  %89 = load ptr, ptr %16, align 8
  store ptr %89, ptr %11, align 8
  %90 = load ptr, ptr %21, align 8
  store ptr %90, ptr %12, align 8
  %91 = load ptr, ptr %11, align 8
  %92 = icmp ne ptr %91, null
  br i1 %92, label %93, label %97

93:                                               ; preds = %87
  %94 = load ptr, ptr %9, align 8
  %95 = load ptr, ptr %11, align 8
  %96 = call ptr @zend_hash_find(ptr noundef %94, ptr noundef %95)
  store ptr %96, ptr %13, align 8
  br label %101

97:                                               ; preds = %87
  %98 = load ptr, ptr %9, align 8
  %99 = load i64, ptr %10, align 8
  %100 = call ptr @zend_hash_index_find(ptr noundef %98, i64 noundef %99)
  store ptr %100, ptr %13, align 8
  br label %101

101:                                              ; preds = %97, %93
  %102 = load ptr, ptr %13, align 8
  %103 = icmp ne ptr %102, null
  br i1 %103, label %104, label %144

104:                                              ; preds = %101
  %105 = load ptr, ptr %12, align 8
  %106 = load ptr, ptr %13, align 8
  %107 = call zeroext i1 @zend_is_identical(ptr noundef %105, ptr noundef %106)
  br i1 %107, label %108, label %144

108:                                              ; preds = %104
  %109 = load ptr, ptr %11, align 8
  %110 = icmp ne ptr %109, null
  br i1 %110, label %111, label %116

111:                                              ; preds = %108
  %112 = load ptr, ptr %7, align 8
  %113 = load ptr, ptr %11, align 8
  %114 = load ptr, ptr %12, align 8
  %115 = call ptr @zend_hash_add_new(ptr noundef %112, ptr noundef %113, ptr noundef %114)
  store ptr %115, ptr %12, align 8
  br label %121

116:                                              ; preds = %108
  %117 = load ptr, ptr %7, align 8
  %118 = load i64, ptr %10, align 8
  %119 = load ptr, ptr %12, align 8
  %120 = call ptr @zend_hash_index_add_new(ptr noundef %117, i64 noundef %118, ptr noundef %119)
  store ptr %120, ptr %12, align 8
  br label %121

121:                                              ; preds = %116, %111
  br label %122

122:                                              ; preds = %121
  %123 = load ptr, ptr %12, align 8
  %124 = getelementptr inbounds %struct._zval_struct, ptr %123, i32 0, i32 1
  %125 = getelementptr inbounds %struct.anon.1, ptr %124, i32 0, i32 1
  %126 = load i8, ptr %125, align 1
  %127 = zext i8 %126 to i32
  %128 = icmp ne i32 %127, 0
  br i1 %128, label %129, label %142

129:                                              ; preds = %122
  %130 = load ptr, ptr %12, align 8
  store ptr %130, ptr %5, align 8
  %131 = load ptr, ptr %5, align 8
  %132 = getelementptr inbounds %struct._zval_struct, ptr %131, i32 0, i32 1
  %133 = getelementptr inbounds %struct.anon.1, ptr %132, i32 0, i32 1
  %134 = load i8, ptr %133, align 1
  %135 = zext i8 %134 to i32
  %136 = icmp ne i32 %135, 0
  call void @llvm.assume(i1 %136)
  %137 = load ptr, ptr %5, align 8
  %138 = load ptr, ptr %137, align 8
  store ptr %138, ptr %4, align 8
  %139 = load ptr, ptr %4, align 8
  %140 = load i32, ptr %139, align 4
  %141 = add i32 %140, 1
  store i32 %141, ptr %139, align 4
  br label %142

142:                                              ; preds = %129, %122
  br label %143

143:                                              ; preds = %142
  br label %144

144:                                              ; preds = %143, %104, %101
  br label %145

145:                                              ; preds = %144, %86
  %146 = load i32, ptr %20, align 4
  %147 = add i32 %146, -1
  store i32 %147, ptr %20, align 4
  br label %46

148:                                              ; preds = %46
  br label %149

149:                                              ; preds = %148
  ret void
}