; Function Attrs: nounwind uwtable
define internal fastcc void @join_hash_tables(ptr noundef %0, ptr nocapture noundef readonly %1, ptr noundef %2) unnamed_addr #0 {
  %4 = getelementptr inbounds i8, ptr %1, i64 8
  %5 = getelementptr inbounds i8, ptr %1, i64 24
  %6 = load i32, ptr %5, align 8
  %.not54 = icmp eq i32 %6, 0
  br i1 %.not54, label %._crit_edge, label %.lr.ph.preheader

.lr.ph.preheader:                                 ; preds = %3
  %7 = getelementptr inbounds i8, ptr %1, i64 16
  %8 = load ptr, ptr %7, align 8
  br label %.lr.ph

.lr.ph:                                           ; preds = %.lr.ph.preheader, %45
  %.04358 = phi i32 [ %46, %45 ], [ %6, %.lr.ph.preheader ]
  %.04457 = phi ptr [ %.1, %45 ], [ %8, %.lr.ph.preheader ]
  %.04656 = phi i32 [ %.147, %45 ], [ 0, %.lr.ph.preheader ]
  %.04855 = phi ptr [ %.149, %45 ], [ null, %.lr.ph.preheader ]
  %9 = load i32, ptr %4, align 8
  %10 = and i32 %9, 4
  %.not50 = icmp eq i32 %10, 0
  br i1 %.not50, label %15, label %11

11:                                               ; preds = %.lr.ph
  %12 = getelementptr inbounds i8, ptr %.04457, i64 16
  %13 = zext i32 %.04656 to i64
  %14 = add i32 %.04656, 1
  br label %21

15:                                               ; preds = %.lr.ph
  %16 = getelementptr inbounds i8, ptr %.04457, i64 32
  %17 = getelementptr inbounds i8, ptr %.04457, i64 16
  %18 = load i64, ptr %17, align 8
  %19 = getelementptr inbounds i8, ptr %.04457, i64 24
  %20 = load ptr, ptr %19, align 8
  br label %21

21:                                               ; preds = %15, %11
  %.149 = phi ptr [ %.04855, %11 ], [ %20, %15 ]
  %.147 = phi i32 [ %14, %11 ], [ %.04656, %15 ]
  %.045 = phi i64 [ %13, %11 ], [ %18, %15 ]
  %.1 = phi ptr [ %12, %11 ], [ %16, %15 ]
  %22 = getelementptr inbounds i8, ptr %.04457, i64 8
  %23 = load i8, ptr %22, align 8
  %24 = icmp eq i8 %23, 0
  br i1 %24, label %45, label %25

25:                                               ; preds = %21
  %.not51 = icmp eq ptr %.149, null
  br i1 %.not51, label %28, label %26

26:                                               ; preds = %25
  %27 = tail call ptr @zend_hash_find(ptr noundef %2, ptr noundef nonnull %.149) #13
  br label %30

28:                                               ; preds = %25
  %29 = tail call ptr @zend_hash_index_find(ptr noundef %2, i64 noundef %.045) #13
  br label %30

30:                                               ; preds = %28, %26
  %.042 = phi ptr [ %27, %26 ], [ %29, %28 ]
  %.not52 = icmp eq ptr %.042, null
  br i1 %.not52, label %45, label %31

31:                                               ; preds = %30
  %32 = tail call zeroext i1 @zend_is_identical(ptr noundef nonnull %.04457, ptr noundef nonnull %.042) #13
  br i1 %32, label %33, label %45

33:                                               ; preds = %31
  br i1 %.not51, label %36, label %34

34:                                               ; preds = %33
  %35 = tail call ptr @zend_hash_add_new(ptr noundef %0, ptr noundef nonnull %.149, ptr noundef nonnull %.04457) #13
  br label %38

36:                                               ; preds = %33
  %37 = tail call ptr @zend_hash_index_add_new(ptr noundef %0, i64 noundef %.045, ptr noundef nonnull %.04457) #13
  br label %38

38:                                               ; preds = %34, %36
  %.0 = phi ptr [ %35, %34 ], [ %37, %36 ]
  %39 = getelementptr inbounds i8, ptr %.0, i64 9
  %40 = load i8, ptr %39, align 1
  %.not53 = icmp eq i8 %40, 0
  br i1 %.not53, label %45, label %41

41:                                               ; preds = %38
  %42 = load ptr, ptr %.0, align 8
  %43 = load i32, ptr %42, align 4
  %44 = add i32 %43, 1
  store i32 %44, ptr %42, align 4
  br label %45

45:                                               ; preds = %30, %31, %38, %41, %21
  %46 = add i32 %.04358, -1
  %.not = icmp eq i32 %46, 0
  br i1 %.not, label %._crit_edge, label %.lr.ph

._crit_edge:                                      ; preds = %45, %3
  ret void
}